; Function Attrs: mustprogress uwtable
define void @_ZN2cv6detail17VoronoiSeamFinder4findERKSt6vectorINS_5Size_IiEESaIS4_EERKS2_INS_6Point_IiEESaISA_EERS2_INS_4UMatESaISF_EE(ptr noundef nonnull align 8 dereferenceable(104) %0, ptr noundef nonnull align 8 dereferenceable(24) %1, ptr noundef nonnull align 8 dereferenceable(24) %2, ptr noundef nonnull align 8 dereferenceable(24) %3) unnamed_addr #3 align 2 {
  %5 = alloca %"class.cv::Rect_", align 8
  %6 = tail call noundef nonnull align 4 dereferenceable(4) ptr @_ZN2cv6detail17stitchingLogLevelEv()
  %7 = getelementptr inbounds nuw i8, ptr %1, i64 8
  %8 = load ptr, ptr %7, align 8, !tbaa !43
  %9 = load ptr, ptr %1, align 8, !tbaa !46
  %10 = icmp eq ptr %8, %9
  br i1 %10, label %58, label %11

11:                                               ; preds = %4
  %12 = getelementptr inbounds nuw i8, ptr %0, i64 32
  %13 = tail call noundef nonnull align 8 dereferenceable(24) ptr @_ZNSt6vectorIN2cv5Size_IiEESaIS2_EEaSERKS4_(ptr noundef nonnull align 8 dereferenceable(24) %12, ptr noundef nonnull align 8 dereferenceable(24) %1)
  %14 = getelementptr inbounds nuw i8, ptr %0, i64 56
  %15 = tail call noundef nonnull align 8 dereferenceable(24) ptr @_ZNSt6vectorIN2cv6Point_IiEESaIS2_EEaSERKS4_(ptr noundef nonnull align 8 dereferenceable(24) %14, ptr noundef nonnull align 8 dereferenceable(24) %2)
  %16 = getelementptr inbounds nuw i8, ptr %0, i64 80
  %17 = tail call noundef nonnull align 8 dereferenceable(24) ptr @_ZNSt6vectorIN2cv4UMatESaIS1_EEaSERKS3_(ptr noundef nonnull align 8 dereferenceable(24) %16, ptr noundef nonnull align 8 dereferenceable(24) %3)
  %18 = getelementptr inbounds nuw i8, ptr %0, i64 40
  %19 = load ptr, ptr %18, align 8, !tbaa !43
  %20 = load ptr, ptr %12, align 8, !tbaa !46
  %21 = ptrtoint ptr %19 to i64
  %22 = ptrtoint ptr %20 to i64
  %23 = sub i64 %21, %22
  %.not.i = icmp eq i64 %23, 8
  br i1 %.not.i, label %_ZN2cv6detail18PairwiseSeamFinder3runEv.exit, label %.lr.ph18.i

.lr.ph18.i:                                       ; preds = %11
  %.sroa.2.0..sroa_idx.i = getelementptr inbounds nuw i8, ptr %5, i64 8
  br label %28

.loopexit.i:                                      ; preds = %48, %28
  %.pre-phi21.i = phi i64 [ %35, %28 ], [ %55, %48 ]
  %24 = phi ptr [ %29, %28 ], [ %51, %48 ]
  %25 = phi ptr [ %30, %28 ], [ %50, %48 ]
  %26 = add nsw i64 %.pre-phi21.i, -1
  %27 = icmp ult i64 %31, %26
  br i1 %27, label %28, label %_ZN2cv6detail18PairwiseSeamFinder3runEv.exit, !llvm.loop !47

28:                                               ; preds = %.loopexit.i, %.lr.ph18.i
  %29 = phi ptr [ %20, %.lr.ph18.i ], [ %24, %.loopexit.i ]
  %30 = phi ptr [ %19, %.lr.ph18.i ], [ %25, %.loopexit.i ]
  %.017.i = phi i64 [ 0, %.lr.ph18.i ], [ %31, %.loopexit.i ]
  %31 = add nuw i64 %.017.i, 1
  %32 = ptrtoint ptr %30 to i64
  %33 = ptrtoint ptr %29 to i64
  %34 = sub i64 %32, %33
  %35 = ashr exact i64 %34, 3
  %36 = icmp ult i64 %31, %35
  br i1 %36, label %.lr.ph.i, label %.loopexit.i

.lr.ph.i:                                         ; preds = %28, %48
  %37 = phi ptr [ %51, %48 ], [ %29, %28 ]
  %.01516.i = phi i64 [ %49, %48 ], [ %31, %28 ]
  call void @llvm.lifetime.start.p0(i64 16, ptr nonnull %5) #31
  call void @llvm.memset.p0.i64(ptr noundef nonnull align 8 dereferenceable(16) %5, i8 0, i64 16, i1 false)
  %38 = load ptr, ptr %14, align 8, !tbaa !49
  %39 = getelementptr inbounds nuw %"class.cv::Point_", ptr %38, i64 %.017.i
  %.sroa.04.0.copyload.i = load i64, ptr %39, align 4
  %40 = getelementptr inbounds nuw %"class.cv::Point_", ptr %38, i64 %.01516.i
  %.sroa.03.0.copyload.i = load i64, ptr %40, align 4
  %41 = getelementptr inbounds nuw %"class.cv::Size_", ptr %37, i64 %.017.i
  %.sroa.02.0.copyload.i = load i64, ptr %41, align 4
  %42 = getelementptr inbounds nuw %"class.cv::Size_", ptr %37, i64 %.01516.i
  %.sroa.01.0.copyload.i = load i64, ptr %42, align 4
  %43 = call noundef zeroext i1 @_ZN2cv6detail10overlapRoiENS_6Point_IiEES2_NS_5Size_IiEES4_RNS_5Rect_IiEE(i64 %.sroa.04.0.copyload.i, i64 %.sroa.03.0.copyload.i, i64 %.sroa.02.0.copyload.i, i64 %.sroa.01.0.copyload.i, ptr noundef nonnull align 4 dereferenceable(16) %5)
  br i1 %43, label %44, label %48

44:                                               ; preds = %.lr.ph.i
  %.sroa.0.0.copyload.i = load i64, ptr %5, align 8
  %.sroa.2.0.copyload.i = load i64, ptr %.sroa.2.0..sroa_idx.i, align 8
  %45 = load ptr, ptr %0, align 8, !tbaa !14
  %46 = getelementptr inbounds nuw i8, ptr %45, i64 24
  %47 = load ptr, ptr %46, align 8
  call void %47(ptr noundef nonnull align 8 dereferenceable(104) %0, i64 noundef %.017.i, i64 noundef %.01516.i, i64 %.sroa.0.0.copyload.i, i64 %.sroa.2.0.copyload.i)
  br label %48

48:                                               ; preds = %44, %.lr.ph.i
  call void @llvm.lifetime.end.p0(i64 16, ptr nonnull %5) #31
  %49 = add nuw i64 %.01516.i, 1
  %50 = load ptr, ptr %18, align 8, !tbaa !43
  %51 = load ptr, ptr %12, align 8, !tbaa !46
  %52 = ptrtoint ptr %50 to i64
  %53 = ptrtoint ptr %51 to i64
  %54 = sub i64 %52, %53
  %55 = ashr exact i64 %54, 3
  %56 = icmp ult i64 %49, %55
  br i1 %56, label %.lr.ph.i, label %.loopexit.i, !llvm.loop !52

_ZN2cv6detail18PairwiseSeamFinder3runEv.exit:     ; preds = %.loopexit.i, %11
  %57 = call noundef nonnull align 4 dereferenceable(4) ptr @_ZN2cv6detail17stitchingLogLevelEv()
  br label %58

58:                                               ; preds = %4, %_ZN2cv6detail18PairwiseSeamFinder3runEv.exit
  ret void
}